(lp0
V/media/disk/photon_data/converted/unif/unif_notime_full//photons_full_5.djctd
p1
aV/media/disk/photon_data/converted/unif/unif_notime_full//photons_full_2.djctd
p2
aV/media/disk/photon_data/converted/unif/unif_notime_full//photons_full_8.djctd
p3
aV/media/disk/photon_data/converted/unif/unif_notime_full//photons_full_1.djctd
p4
aV/media/disk/photon_data/converted/unif/unif_notime_full//photons_full_9.djctd
p5
aV/media/disk/photon_data/converted/unif/unif_notime_full//photons_full_6.djctd
p6
aV/media/disk/photon_data/converted/unif/unif_notime_full//photons_full_7.djctd
p7
aV/media/disk/photon_data/converted/unif/unif_notime_full//photons_full_0.djctd
p8
aV/media/disk/photon_data/converted/unif/unif_notime_full//photons_full_3.djctd
p9
a.(lp0
.cdatastructures.TrainData_crilin
TrainData_crilin
p0
.(dp0
.L1L
.I00
.(dp0
.